; Function Attrs: mustprogress uwtable
define void @_ZN7rocksdb29PartitionedFilterBlockBuilder19PrevKeyBeforeFinishERKNS_5SliceE(ptr noundef nonnull align 8 dereferenceable(577) %0, ptr noundef nonnull align 8 dereferenceable(16) %1) unnamed_addr #3 align 2 {
  %3 = getelementptr inbounds nuw i8, ptr %0, i64 8
  %4 = load ptr, ptr %3, align 8, !tbaa !71
  %5 = load ptr, ptr %4, align 8, !tbaa !11
  %6 = getelementptr inbounds nuw i8, ptr %5, i64 32
  %7 = load ptr, ptr %6, align 8
  %8 = tail call noundef i64 %7(ptr noundef nonnull align 8 dereferenceable(8) %4)
  %.not = icmp eq i64 %8, 0
  br i1 %.not, label %10, label %9

9:                                                ; preds = %2
  tail call void @_ZN7rocksdb29PartitionedFilterBlockBuilder15CutAFilterBlockEPKNS_5SliceES3_RS2_(ptr noundef nonnull align 8 dereferenceable(577) %0, ptr noundef null, ptr noundef null, ptr noundef nonnull align 8 dereferenceable(16) %1)
  br label %10

10:                                               ; preds = %9, %2
  ret void
}